; ModuleID = '49/647.cpp'
source_filename = "49/647.cpp"
target datalayout = "e-m:e-p270:32:32-p271:32:32-p272:64:64-i64:64-f80:128-n8:16:32:64-S128"
target triple = "x86_64-pc-linux-gnu"

%"class.std::ios_base::Init" = type { i8 }
%"class.std::basic_istream" = type { i32 (...)**, i64, %"class.std::basic_ios" }
%"class.std::basic_ios" = type { %"class.std::ios_base", %"class.std::basic_ostream"*, i8, i8, %"class.std::basic_streambuf"*, %"class.std::ctype"*, %"class.std::num_put"*, %"class.std::num_get"* }
%"class.std::ios_base" = type { i32 (...)**, i64, i64, i32, i32, i32, %"struct.std::ios_base::_Callback_list"*, %"struct.std::ios_base::_Words", [8 x %"struct.std::ios_base::_Words"], i32, %"struct.std::ios_base::_Words"*, %"class.std::locale" }
%"struct.std::ios_base::_Callback_list" = type { %"struct.std::ios_base::_Callback_list"*, void (i32, %"class.std::ios_base"*, i32)*, i32, i32 }
%"struct.std::ios_base::_Words" = type { i8*, i64 }
%"class.std::locale" = type { %"class.std::locale::_Impl"* }
%"class.std::locale::_Impl" = type { i32, %"class.std::locale::facet"**, i64, %"class.std::locale::facet"**, i8** }
%"class.std::locale::facet" = type <{ i32 (...)**, i32, [4 x i8] }>
%"class.std::basic_ostream" = type { i32 (...)**, %"class.std::basic_ios" }
%"class.std::basic_streambuf" = type { i32 (...)**, i8*, i8*, i8*, i8*, i8*, i8*, %"class.std::locale" }
%"class.std::ctype" = type <{ %"class.std::locale::facet.base", [4 x i8], %struct.__locale_struct*, i8, [7 x i8], i32*, i32*, i16*, i8, [256 x i8], [256 x i8], i8, [6 x i8] }>
%"class.std::locale::facet.base" = type <{ i32 (...)**, i32 }>
%struct.__locale_struct = type { [13 x %struct.__locale_data*], i16*, i32*, i32*, [13 x i8*] }
%struct.__locale_data = type opaque
%"class.std::num_put" = type { %"class.std::locale::facet.base", [4 x i8] }
%"class.std::num_get" = type { %"class.std::locale::facet.base", [4 x i8] }

@_ZStL8__ioinit = internal global %"class.std::ios_base::Init" zeroinitializer, align 1
@__dso_handle = external hidden global i8
@_ZSt3cin = external dso_local global %"class.std::basic_istream", align 8
@_ZSt4cout = external dso_local global %"class.std::basic_ostream", align 8
@llvm.global_ctors = appending global [1 x { i32, void ()*, i8* }] [{ i32, void ()*, i8* } { i32 65535, void ()* @_GLOBAL__sub_I_647.cpp, i8* null }]

; Function Attrs: noinline uwtable
define internal void @__cxx_global_var_init() #0 section ".text.startup" {
  call void @_ZNSt8ios_base4InitC1Ev(%"class.std::ios_base::Init"* @_ZStL8__ioinit)
  %1 = call i32 @__cxa_atexit(void (i8*)* bitcast (void (%"class.std::ios_base::Init"*)* @_ZNSt8ios_base4InitD1Ev to void (i8*)*), i8* getelementptr inbounds (%"class.std::ios_base::Init", %"class.std::ios_base::Init"* @_ZStL8__ioinit, i32 0, i32 0), i8* @__dso_handle) #3
  ret void
}

declare dso_local void @_ZNSt8ios_base4InitC1Ev(%"class.std::ios_base::Init"*) unnamed_addr #1

; Function Attrs: nounwind
declare dso_local void @_ZNSt8ios_base4InitD1Ev(%"class.std::ios_base::Init"*) unnamed_addr #2

; Function Attrs: nounwind
declare dso_local i32 @__cxa_atexit(void (i8*)*, i8*, i8*) #3

; Function Attrs: noinline norecurse uwtable
define dso_local i32 @main() #4 {
  %1 = alloca i32, align 4
  %2 = alloca [500 x i8], align 16
  %3 = alloca i32, align 4
  %4 = alloca i32, align 4
  %5 = alloca i32, align 4
  %6 = alloca i32, align 4
  %7 = alloca i32, align 4
  %8 = alloca i32, align 4
  %9 = alloca i32, align 4
  store i32 0, i32* %1, align 4
  %10 = bitcast [500 x i8]* %2 to i8*
  call void @llvm.memset.p0i8.i64(i8* align 16 %10, i8 0, i64 500, i1 false)
  %11 = getelementptr inbounds [500 x i8], [500 x i8]* %2, i64 0, i64 0
  %12 = call dereferenceable(280) %"class.std::basic_istream"* @_ZStrsIcSt11char_traitsIcEERSt13basic_istreamIT_T0_ES6_PS3_(%"class.std::basic_istream"* dereferenceable(280) @_ZSt3cin, i8* %11)
  store i32 0, i32* %3, align 4
  store i32 0, i32* %4, align 4
  br label %13

13:                                               ; preds = %23, %0
  %14 = load i32, i32* %4, align 4
  %15 = sext i32 %14 to i64
  %16 = getelementptr inbounds [500 x i8], [500 x i8]* %2, i64 0, i64 %15
  %17 = load i8, i8* %16, align 1
  %18 = sext i8 %17 to i32
  %19 = icmp ne i32 %18, 0
  br i1 %19, label %20, label %26

20:                                               ; preds = %13
  %21 = load i32, i32* %3, align 4
  %22 = add nsw i32 %21, 1
  store i32 %22, i32* %3, align 4
  br label %23

23:                                               ; preds = %20
  %24 = load i32, i32* %4, align 4
  %25 = add nsw i32 %24, 1
  store i32 %25, i32* %4, align 4
  br label %13

26:                                               ; preds = %13
  store i32 0, i32* %5, align 4
  store i32 1, i32* %6, align 4
  br label %27

27:                                               ; preds = %107, %26
  %28 = load i32, i32* %6, align 4
  %29 = load i32, i32* %3, align 4
  %30 = icmp slt i32 %28, %29
  br i1 %30, label %31, label %110

31:                                               ; preds = %27
  store i32 0, i32* %7, align 4
  br label %32

32:                                               ; preds = %103, %31
  %33 = load i32, i32* %7, align 4
  %34 = load i32, i32* %3, align 4
  %35 = load i32, i32* %6, align 4
  %36 = sub nsw i32 %34, %35
  %37 = icmp slt i32 %33, %36
  br i1 %37, label %38, label %106

38:                                               ; preds = %32
  store i32 0, i32* %8, align 4
  br label %39

39:                                               ; preds = %77, %38
  %40 = load i32, i32* %8, align 4
  %41 = load i32, i32* %6, align 4
  %42 = icmp slt i32 %40, %41
  br i1 %42, label %43, label %80

43:                                               ; preds = %39
  %44 = load i32, i32* %7, align 4
  %45 = load i32, i32* %6, align 4
  %46 = add nsw i32 %44, %45
  %47 = sext i32 %46 to i64
  %48 = getelementptr inbounds [500 x i8], [500 x i8]* %2, i64 0, i64 %47
  %49 = load i8, i8* %48, align 1
  %50 = sext i8 %49 to i32
  %51 = icmp eq i32 %50, 0
  br i1 %51, label %52, label %55

52:                                               ; preds = %43
  %53 = load i32, i32* %5, align 4
  %54 = add nsw i32 %53, 1
  store i32 %54, i32* %5, align 4
  br label %80

55:                                               ; preds = %43
  %56 = load i32, i32* %7, align 4
  %57 = load i32, i32* %8, align 4
  %58 = add nsw i32 %56, %57
  %59 = sext i32 %58 to i64
  %60 = getelementptr inbounds [500 x i8], [500 x i8]* %2, i64 0, i64 %59
  %61 = load i8, i8* %60, align 1
  %62 = sext i8 %61 to i32
  %63 = load i32, i32* %7, align 4
  %64 = load i32, i32* %6, align 4
  %65 = add nsw i32 %63, %64
  %66 = load i32, i32* %8, align 4
  %67 = sub nsw i32 %65, %66
  %68 = sext i32 %67 to i64
  %69 = getelementptr inbounds [500 x i8], [500 x i8]* %2, i64 0, i64 %68
  %70 = load i8, i8* %69, align 1
  %71 = sext i8 %70 to i32
  %72 = icmp ne i32 %62, %71
  br i1 %72, label %73, label %76

73:                                               ; preds = %55
  %74 = load i32, i32* %5, align 4
  %75 = add nsw i32 %74, 1
  store i32 %75, i32* %5, align 4
  br label %80

76:                                               ; preds = %55
  br label %77

77:                                               ; preds = %76
  %78 = load i32, i32* %8, align 4
  %79 = add nsw i32 %78, 1
  store i32 %79, i32* %8, align 4
  br label %39

80:                                               ; preds = %73, %52, %39
  %81 = load i32, i32* %5, align 4
  %82 = icmp eq i32 %81, 0
  br i1 %82, label %83, label %102

83:                                               ; preds = %80
  %84 = load i32, i32* %7, align 4
  store i32 %84, i32* %9, align 4
  br label %85

85:                                               ; preds = %97, %83
  %86 = load i32, i32* %9, align 4
  %87 = load i32, i32* %7, align 4
  %88 = load i32, i32* %6, align 4
  %89 = add nsw i32 %87, %88
  %90 = icmp sle i32 %86, %89
  br i1 %90, label %91, label %100

91:                                               ; preds = %85
  %92 = load i32, i32* %9, align 4
  %93 = sext i32 %92 to i64
  %94 = getelementptr inbounds [500 x i8], [500 x i8]* %2, i64 0, i64 %93
  %95 = load i8, i8* %94, align 1
  %96 = call dereferenceable(272) %"class.std::basic_ostream"* @_ZStlsISt11char_traitsIcEERSt13basic_ostreamIcT_ES5_c(%"class.std::basic_ostream"* dereferenceable(272) @_ZSt4cout, i8 signext %95)
  br label %97

97:                                               ; preds = %91
  %98 = load i32, i32* %9, align 4
  %99 = add nsw i32 %98, 1
  store i32 %99, i32* %9, align 4
  br label %85

100:                                              ; preds = %85
  %101 = call dereferenceable(272) %"class.std::basic_ostream"* @_ZNSolsEPFRSoS_E(%"class.std::basic_ostream"* @_ZSt4cout, %"class.std::basic_ostream"* (%"class.std::basic_ostream"*)* @_ZSt4endlIcSt11char_traitsIcEERSt13basic_ostreamIT_T0_ES6_)
  br label %102

102:                                              ; preds = %100, %80
  store i32 0, i32* %5, align 4
  br label %103

103:                                              ; preds = %102
  %104 = load i32, i32* %7, align 4
  %105 = add nsw i32 %104, 1
  store i32 %105, i32* %7, align 4
  br label %32

106:                                              ; preds = %32
  br label %107

107:                                              ; preds = %106
  %108 = load i32, i32* %6, align 4
  %109 = add nsw i32 %108, 1
  store i32 %109, i32* %6, align 4
  br label %27

110:                                              ; preds = %27
  ret i32 0
}

; Function Attrs: argmemonly nounwind willreturn
declare void @llvm.memset.p0i8.i64(i8* nocapture writeonly, i8, i64, i1 immarg) #5

declare dso_local dereferenceable(280) %"class.std::basic_istream"* @_ZStrsIcSt11char_traitsIcEERSt13basic_istreamIT_T0_ES6_PS3_(%"class.std::basic_istream"* dereferenceable(280), i8*) #1

declare dso_local dereferenceable(272) %"class.std::basic_ostream"* @_ZStlsISt11char_traitsIcEERSt13basic_ostreamIcT_ES5_c(%"class.std::basic_ostream"* dereferenceable(272), i8 signext) #1

declare dso_local dereferenceable(272) %"class.std::basic_ostream"* @_ZNSolsEPFRSoS_E(%"class.std::basic_ostream"*, %"class.std::basic_ostream"* (%"class.std::basic_ostream"*)*) #1

declare dso_local dereferenceable(272) %"class.std::basic_ostream"* @_ZSt4endlIcSt11char_traitsIcEERSt13basic_ostreamIT_T0_ES6_(%"class.std::basic_ostream"* dereferenceable(272)) #1

; Function Attrs: noinline uwtable
define internal void @_GLOBAL__sub_I_647.cpp() #0 section ".text.startup" {
  call void @__cxx_global_var_init()
  ret void
}


!llvm.module.flags = !{!0}
!llvm.ident = !{!1}

!0 = !{i32 1, !"wchar_size", i32 4}
!1 = !{!"clang version 10.0.0-4ubuntu1 "}
